target datalayout = "e-m:e-p270:32:32-p271:32:32-p272:64:64-i64:64-i128:128-f80:128-n8:16:32:64-S128"
target triple = "x86_64-pc-linux-gnu"

; Function Attrs: nounwind uwtable
define dso_local i64 @powerLawRand(i64 noundef %0, i64 noundef %1, double noundef %2) #0 {
  %4 = alloca i64, align 8
  %5 = alloca i64, align 8
  %6 = alloca double, align 8
  %7 = alloca double, align 8
  %8 = alloca double, align 8
  store i64 %0, ptr %4, align 8, !tbaa !221
  store i64 %1, ptr %5, align 8, !tbaa !221
  store double %2, ptr %6, align 8, !tbaa !235
  call void @llvm.lifetime.start.p0(i64 8, ptr %7) #15
  call void @llvm.lifetime.start.p0(i64 8, ptr %8) #15
  %9 = load i64, ptr %5, align 8, !tbaa !221
  %10 = add nsw i64 %9, 1
  store i64 %10, ptr %5, align 8, !tbaa !221
  %11 = call i32 @rand() #15
  %12 = sitofp i32 %11 to double
  %13 = fdiv double %12, 0x41DFFFFFFFC00000
  store double %13, ptr %8, align 8, !tbaa !235
  %14 = load i64, ptr %5, align 8, !tbaa !221
  %15 = sitofp i64 %14 to double
  %16 = load double, ptr %6, align 8, !tbaa !235
  %17 = fadd double %16, 1.000000e+00
  %18 = call double @pow(double noundef %15, double noundef %17) #15, !tbaa !10
  %19 = load i64, ptr %4, align 8, !tbaa !221
  %20 = sitofp i64 %19 to double
  %21 = load double, ptr %6, align 8, !tbaa !235
  %22 = fadd double %21, 1.000000e+00
  %23 = call double @pow(double noundef %20, double noundef %22) #15, !tbaa !10
  %24 = fsub double %18, %23
  %25 = load double, ptr %8, align 8, !tbaa !235
  %26 = load i64, ptr %4, align 8, !tbaa !221
  %27 = sitofp i64 %26 to double
  %28 = load double, ptr %6, align 8, !tbaa !235
  %29 = fadd double %28, 1.000000e+00
  %30 = call double @pow(double noundef %27, double noundef %29) #15, !tbaa !10
  %31 = call double @llvm.fmuladd.f64(double %24, double %25, double %30)
  %32 = load double, ptr %6, align 8, !tbaa !235
  %33 = fadd double %32, 1.000000e+00
  %34 = fdiv double 1.000000e+00, %33
  %35 = call double @pow(double noundef %31, double noundef %34) #15, !tbaa !10
  store double %35, ptr %7, align 8, !tbaa !235
  %36 = load i64, ptr %5, align 8, !tbaa !221
  %37 = sub nsw i64 %36, 1
  %38 = load double, ptr %7, align 8, !tbaa !235
  %39 = fptosi double %38 to i64
  %40 = sub nsw i64 %37, %39
  %41 = load i64, ptr %4, align 8, !tbaa !221
  %42 = add nsw i64 %40, %41
  call void @llvm.lifetime.end.p0(i64 8, ptr %8) #15
  call void @llvm.lifetime.end.p0(i64 8, ptr %7) #15
  ret i64 %42
}