; Function Attrs: nounwind uwtable
define dso_local i64 @powerLawRand(i64 noundef %0, i64 noundef %1, double noundef %2) local_unnamed_addr #0 {
  %4 = add nsw i64 %1, 1
  %5 = tail call i32 @rand() #33
  %6 = sitofp i32 %5 to double
  %7 = fdiv double %6, 0x41DFFFFFFFC00000
  %8 = sitofp i64 %4 to double
  %9 = fadd double %2, 1.000000e+00
  %10 = tail call double @pow(double noundef %8, double noundef %9) #33, !tbaa !22
  %11 = sitofp i64 %0 to double
  %12 = tail call double @pow(double noundef %11, double noundef %9) #33, !tbaa !22
  %13 = fsub double %10, %12
  %14 = tail call double @pow(double noundef %11, double noundef %9) #33, !tbaa !22
  %15 = tail call double @llvm.fmuladd.f64(double %13, double %7, double %14)
  %16 = fdiv double 1.000000e+00, %9
  %17 = tail call double @pow(double noundef %15, double noundef %16) #33, !tbaa !22
  %18 = fptosi double %17 to i64
  %19 = add i64 %1, %0
  %20 = sub i64 %19, %18
  ret i64 %20
}